; ModuleID = '53/590.c'
source_filename = "53/590.c"
target datalayout = "e-m:e-p270:32:32-p271:32:32-p272:64:64-i64:64-f80:128-n8:16:32:64-S128"
target triple = "x86_64-pc-linux-gnu"

@.str = private unnamed_addr constant [3 x i8] c"%d\00", align 1
@.str.1 = private unnamed_addr constant [4 x i8] c"%d,\00", align 1

; Function Attrs: noinline nounwind uwtable
define dso_local i32 @main() #0 {
  %1 = alloca i32, align 4
  %2 = alloca i32, align 4
  %3 = alloca [300 x i32], align 16
  %4 = alloca i32*, align 8
  %5 = alloca i32, align 4
  %6 = alloca i32*, align 8
  %7 = alloca i32*, align 8
  %8 = alloca [300 x i32], align 16
  %9 = alloca i32, align 4
  store i32 0, i32* %1, align 4
  store i32 0, i32* %9, align 4
  %10 = call i32 (i8*, ...) @__isoc99_scanf(i8* getelementptr inbounds ([3 x i8], [3 x i8]* @.str, i64 0, i64 0), i32* %2)
  %11 = getelementptr inbounds [300 x i32], [300 x i32]* %3, i64 0, i64 0
  store i32* %11, i32** %4, align 8
  store i32 0, i32* %5, align 4
  br label %12

12:                                               ; preds = %19, %0
  %13 = load i32, i32* %5, align 4
  %14 = load i32, i32* %2, align 4
  %15 = icmp slt i32 %13, %14
  br i1 %15, label %16, label %24

16:                                               ; preds = %12
  %17 = load i32*, i32** %4, align 8
  %18 = call i32 (i8*, ...) @__isoc99_scanf(i8* getelementptr inbounds ([3 x i8], [3 x i8]* @.str, i64 0, i64 0), i32* %17)
  br label %19

19:                                               ; preds = %16
  %20 = load i32, i32* %5, align 4
  %21 = add nsw i32 %20, 1
  store i32 %21, i32* %5, align 4
  %22 = load i32*, i32** %4, align 8
  %23 = getelementptr inbounds i32, i32* %22, i32 1
  store i32* %23, i32** %4, align 8
  br label %12

24:                                               ; preds = %12
  %25 = getelementptr inbounds [300 x i32], [300 x i32]* %3, i64 0, i64 0
  %26 = load i32, i32* %25, align 16
  %27 = call i32 (i8*, ...) @printf(i8* getelementptr inbounds ([4 x i8], [4 x i8]* @.str.1, i64 0, i64 0), i32 %26)
  %28 = getelementptr inbounds [300 x i32], [300 x i32]* %3, i64 0, i64 0
  %29 = getelementptr inbounds i32, i32* %28, i64 1
  store i32* %29, i32** %7, align 8
  br label %30

30:                                               ; preds = %67, %24
  %31 = load i32*, i32** %7, align 8
  %32 = getelementptr inbounds [300 x i32], [300 x i32]* %3, i64 0, i64 0
  %33 = load i32, i32* %2, align 4
  %34 = sext i32 %33 to i64
  %35 = getelementptr inbounds i32, i32* %32, i64 %34
  %36 = icmp ult i32* %31, %35
  br i1 %36, label %37, label %70

37:                                               ; preds = %30
  %38 = getelementptr inbounds [300 x i32], [300 x i32]* %3, i64 0, i64 0
  store i32* %38, i32** %6, align 8
  br label %39

39:                                               ; preds = %51, %37
  %40 = load i32*, i32** %6, align 8
  %41 = load i32*, i32** %7, align 8
  %42 = icmp ult i32* %40, %41
  br i1 %42, label %43, label %54

43:                                               ; preds = %39
  %44 = load i32*, i32** %7, align 8
  %45 = load i32, i32* %44, align 4
  %46 = load i32*, i32** %6, align 8
  %47 = load i32, i32* %46, align 4
  %48 = icmp eq i32 %45, %47
  br i1 %48, label %49, label %50

49:                                               ; preds = %43
  br label %54

50:                                               ; preds = %43
  br label %51

51:                                               ; preds = %50
  %52 = load i32*, i32** %6, align 8
  %53 = getelementptr inbounds i32, i32* %52, i32 1
  store i32* %53, i32** %6, align 8
  br label %39

54:                                               ; preds = %49, %39
  %55 = load i32*, i32** %6, align 8
  %56 = load i32*, i32** %7, align 8
  %57 = icmp uge i32* %55, %56
  br i1 %57, label %58, label %66

58:                                               ; preds = %54
  %59 = load i32*, i32** %7, align 8
  %60 = load i32, i32* %59, align 4
  %61 = load i32, i32* %9, align 4
  %62 = sext i32 %61 to i64
  %63 = getelementptr inbounds [300 x i32], [300 x i32]* %8, i64 0, i64 %62
  store i32 %60, i32* %63, align 4
  %64 = load i32, i32* %9, align 4
  %65 = add nsw i32 %64, 1
  store i32 %65, i32* %9, align 4
  br label %66

66:                                               ; preds = %58, %54
  br label %67

67:                                               ; preds = %66
  %68 = load i32*, i32** %7, align 8
  %69 = getelementptr inbounds i32, i32* %68, i32 1
  store i32* %69, i32** %7, align 8
  br label %30

70:                                               ; preds = %30
  store i32 0, i32* %5, align 4
  br label %71

71:                                               ; preds = %82, %70
  %72 = load i32, i32* %5, align 4
  %73 = load i32, i32* %9, align 4
  %74 = sub nsw i32 %73, 1
  %75 = icmp slt i32 %72, %74
  br i1 %75, label %76, label %85

76:                                               ; preds = %71
  %77 = load i32, i32* %5, align 4
  %78 = sext i32 %77 to i64
  %79 = getelementptr inbounds [300 x i32], [300 x i32]* %8, i64 0, i64 %78
  %80 = load i32, i32* %79, align 4
  %81 = call i32 (i8*, ...) @printf(i8* getelementptr inbounds ([4 x i8], [4 x i8]* @.str.1, i64 0, i64 0), i32 %80)
  br label %82

82:                                               ; preds = %76
  %83 = load i32, i32* %5, align 4
  %84 = add nsw i32 %83, 1
  store i32 %84, i32* %5, align 4
  br label %71

85:                                               ; preds = %71
  %86 = load i32, i32* %5, align 4
  %87 = sext i32 %86 to i64
  %88 = getelementptr inbounds [300 x i32], [300 x i32]* %8, i64 0, i64 %87
  %89 = load i32, i32* %88, align 4
  %90 = call i32 (i8*, ...) @printf(i8* getelementptr inbounds ([3 x i8], [3 x i8]* @.str, i64 0, i64 0), i32 %89)
  %91 = load i32, i32* %1, align 4
  ret i32 %91
}

declare dso_local i32 @__isoc99_scanf(i8*, ...) #1

declare dso_local i32 @printf(i8*, ...) #1


!llvm.module.flags = !{!0}
!llvm.ident = !{!1}

!0 = !{i32 1, !"wchar_size", i32 4}
!1 = !{!"clang version 10.0.0-4ubuntu1 "}
